target datalayout = "e-m:e-p270:32:32-p271:32:32-p272:64:64-i64:64-i128:128-f80:128-n8:16:32:64-S128"
target triple = "x86_64-pc-linux-gnu"

%struct.prov_drbg_st = type { ptr, ptr, ptr, ptr, ptr, ptr, ptr, ptr, ptr, ptr, ptr, ptr, ptr, ptr, i32, i16, i32, i64, i64, i64, i64, i64, i64, i64, i32, i32, i64, i64, i32, i32, i32, i64, i32, ptr, ptr, ptr, ptr, ptr, ptr }
%struct.rand_drbg_hash_st = type { %struct.PROV_DIGEST, ptr, i64, [111 x i8], [111 x i8], [111 x i8] }
%struct.PROV_DIGEST = type { ptr, ptr, ptr }

; Function Attrs: nounwind uwtable
define internal i32 @hash_df1(ptr noundef %0, ptr noundef %1, i8 noundef zeroext %2, ptr noundef %3, i64 noundef %4) #0 {
  %6 = alloca ptr, align 8
  %7 = alloca ptr, align 8
  %8 = alloca i8, align 1
  %9 = alloca ptr, align 8
  %10 = alloca i64, align 8
  store ptr %0, ptr %6, align 8, !tbaa !9
  store ptr %1, ptr %7, align 8, !tbaa !26
  store i8 %2, ptr %8, align 1, !tbaa !33
  store ptr %3, ptr %9, align 8, !tbaa !26
  store i64 %4, ptr %10, align 8, !tbaa !28
  %11 = load ptr, ptr %6, align 8, !tbaa !9
  %12 = load ptr, ptr %7, align 8, !tbaa !26
  %13 = load i8, ptr %8, align 1, !tbaa !33
  %14 = load ptr, ptr %9, align 8, !tbaa !26
  %15 = load i64, ptr %10, align 8, !tbaa !28
  %16 = call i32 @hash_df(ptr noundef %11, ptr noundef %12, i8 noundef zeroext %13, ptr noundef %14, i64 noundef %15, ptr noundef null, i64 noundef 0, ptr noundef null, i64 noundef 0)
  ret i32 %16
}

; Function Attrs: nounwind uwtable
define internal i32 @drbg_hash_instantiate(ptr noundef %0, ptr noundef %1, i64 noundef %2, ptr noundef %3, i64 noundef %4, ptr noundef %5, i64 noundef %6) #0 {
  %8 = alloca ptr, align 8
  %9 = alloca ptr, align 8
  %10 = alloca i64, align 8
  %11 = alloca ptr, align 8
  %12 = alloca i64, align 8
  %13 = alloca ptr, align 8
  %14 = alloca i64, align 8
  %15 = alloca ptr, align 8
  store ptr %0, ptr %8, align 8, !tbaa !9
  store ptr %1, ptr %9, align 8, !tbaa !26
  store i64 %2, ptr %10, align 8, !tbaa !28
  store ptr %3, ptr %11, align 8, !tbaa !26
  store i64 %4, ptr %12, align 8, !tbaa !28
  store ptr %5, ptr %13, align 8, !tbaa !26
  store i64 %6, ptr %14, align 8, !tbaa !28
  call void @llvm.lifetime.start.p0(i64 8, ptr %15) #4
  %16 = load ptr, ptr %8, align 8, !tbaa !9
  %17 = getelementptr inbounds nuw %struct.prov_drbg_st, ptr %16, i32 0, i32 33
  %18 = load ptr, ptr %17, align 8, !tbaa !11
  store ptr %18, ptr %15, align 8, !tbaa !17
  %19 = load ptr, ptr %15, align 8, !tbaa !17
  %20 = getelementptr inbounds nuw %struct.rand_drbg_hash_st, ptr %19, i32 0, i32 1
  %21 = load ptr, ptr %20, align 8, !tbaa !19
  call void @EVP_MD_CTX_free(ptr noundef %21)
  %22 = call ptr @EVP_MD_CTX_new()
  %23 = load ptr, ptr %15, align 8, !tbaa !17
  %24 = getelementptr inbounds nuw %struct.rand_drbg_hash_st, ptr %23, i32 0, i32 1
  store ptr %22, ptr %24, align 8, !tbaa !19
  %25 = load ptr, ptr %15, align 8, !tbaa !17
  %26 = getelementptr inbounds nuw %struct.rand_drbg_hash_st, ptr %25, i32 0, i32 1
  %27 = load ptr, ptr %26, align 8, !tbaa !19
  %28 = icmp ne ptr %27, null
  br i1 %28, label %29, label %55

29:                                               ; preds = %7
  %30 = load ptr, ptr %8, align 8, !tbaa !9
  %31 = load ptr, ptr %15, align 8, !tbaa !17
  %32 = getelementptr inbounds nuw %struct.rand_drbg_hash_st, ptr %31, i32 0, i32 3
  %33 = getelementptr inbounds [111 x i8], ptr %32, i64 0, i64 0
  %34 = load ptr, ptr %9, align 8, !tbaa !26
  %35 = load i64, ptr %10, align 8, !tbaa !28
  %36 = load ptr, ptr %11, align 8, !tbaa !26
  %37 = load i64, ptr %12, align 8, !tbaa !28
  %38 = load ptr, ptr %13, align 8, !tbaa !26
  %39 = load i64, ptr %14, align 8, !tbaa !28
  %40 = call i32 @hash_df(ptr noundef %30, ptr noundef %33, i8 noundef zeroext -1, ptr noundef %34, i64 noundef %35, ptr noundef %36, i64 noundef %37, ptr noundef %38, i64 noundef %39)
  %41 = icmp ne i32 %40, 0
  br i1 %41, label %42, label %55

42:                                               ; preds = %29
  %43 = load ptr, ptr %8, align 8, !tbaa !9
  %44 = load ptr, ptr %15, align 8, !tbaa !17
  %45 = getelementptr inbounds nuw %struct.rand_drbg_hash_st, ptr %44, i32 0, i32 4
  %46 = getelementptr inbounds [111 x i8], ptr %45, i64 0, i64 0
  %47 = load ptr, ptr %15, align 8, !tbaa !17
  %48 = getelementptr inbounds nuw %struct.rand_drbg_hash_st, ptr %47, i32 0, i32 3
  %49 = getelementptr inbounds [111 x i8], ptr %48, i64 0, i64 0
  %50 = load ptr, ptr %8, align 8, !tbaa !9
  %51 = getelementptr inbounds nuw %struct.prov_drbg_st, ptr %50, i32 0, i32 31
  %52 = load i64, ptr %51, align 8, !tbaa !38
  %53 = call i32 @hash_df1(ptr noundef %43, ptr noundef %46, i8 noundef zeroext 0, ptr noundef %49, i64 noundef %52)
  %54 = icmp ne i32 %53, 0
  br label %55

55:                                               ; preds = %42, %29, %7
  %56 = phi i1 [ false, %29 ], [ false, %7 ], [ %54, %42 ]
  %57 = zext i1 %56 to i32
  call void @llvm.lifetime.end.p0(i64 8, ptr %15) #4
  ret i32 %57
}