; Function Attrs: nounwind uwtable
define internal range(i32 0, 2) i32 @drbg_hash_instantiate(ptr noundef readonly captures(none) %0, ptr noundef %1, i64 noundef %2, ptr noundef %3, i64 noundef %4, ptr noundef %5, i64 noundef %6) #0 {
  %8 = getelementptr inbounds nuw i8, ptr %0, i64 240
  %9 = load ptr, ptr %8, align 8, !tbaa !3
  %10 = getelementptr inbounds nuw i8, ptr %9, i64 24
  %11 = load ptr, ptr %10, align 8, !tbaa !12
  tail call void @EVP_MD_CTX_free(ptr noundef %11) #6
  %12 = tail call ptr @EVP_MD_CTX_new() #6
  store ptr %12, ptr %10, align 8, !tbaa !12
  %.not = icmp eq ptr %12, null
  br i1 %.not, label %21, label %13

13:                                               ; preds = %7
  %14 = getelementptr inbounds nuw i8, ptr %9, i64 40
  %15 = getelementptr i8, ptr %0, i64 224
  %.val = load i64, ptr %15, align 8, !tbaa !25
  %.val16 = load ptr, ptr %8, align 8, !tbaa !3
  %16 = tail call fastcc i32 @hash_df(i64 %.val, ptr %.val16, ptr noundef nonnull %14, i8 noundef zeroext -1, ptr noundef %1, i64 noundef %2, ptr noundef %3, i64 noundef %4, ptr noundef %5, i64 noundef %6)
  %.not15 = icmp eq i32 %16, 0
  br i1 %.not15, label %21, label %17

17:                                               ; preds = %13
  %18 = getelementptr inbounds nuw i8, ptr %9, i64 151
  %19 = load i64, ptr %15, align 8, !tbaa !25
  %.val18 = load ptr, ptr %8, align 8, !tbaa !3
  %20 = tail call fastcc range(i32 0, 2) i32 @hash_df(i64 %19, ptr %.val18, ptr noundef nonnull %18, i8 noundef zeroext 0, ptr noundef nonnull %14, i64 noundef %19, ptr noundef null, i64 noundef 0, ptr noundef null, i64 noundef 0)
  br label %21

21:                                               ; preds = %17, %13, %7
  %22 = phi i32 [ 0, %13 ], [ 0, %7 ], [ %20, %17 ]
  ret i32 %22
}